target datalayout = "e-m:e-p270:32:32-p271:32:32-p272:64:64-i64:64-i128:128-f80:128-n8:16:32:64-S128"
target triple = "x86_64-pc-linux-gnu"

%struct.preference = type { ptr, ptr, ptr, i32, i32, i32, %union.anon, %union.anon.0, %union.anon.1, %union.anon.2, %struct.pref_custom_cbs, ptr, ptr }
%union.anon = type { ptr }
%union.anon.0 = type { ptr }
%union.anon.1 = type { ptr }
%union.anon.2 = type { %struct.anon }
%struct.anon = type { ptr, i8 }
%struct.pref_custom_cbs = type { ptr, ptr, ptr, ptr, ptr, ptr, ptr }

@.str = private unnamed_addr constant [5 x i8] c"Epan\00", align 1
@.str.1 = private unnamed_addr constant [13 x i8] c"epan/prefs.c\00", align 1
@.str.8 = private unnamed_addr constant [31 x i8] c"assertion \22not reached\22 failed\00", align 1
@__func__.prefs_set_range_value = private unnamed_addr constant [22 x i8] c"prefs_set_range_value\00", align 1

; Function Attrs: null_pointer_is_valid sspstrong uwtable
define zeroext i1 @prefs_set_range_value(ptr noundef %0, ptr noundef %1, i32 noundef %2) #1 {
  %4 = alloca ptr, align 8
  %5 = alloca ptr, align 8
  %6 = alloca i32, align 4
  %7 = alloca i8, align 1
  store ptr %0, ptr %4, align 8
  store ptr %1, ptr %5, align 8
  store i32 %2, ptr %6, align 4
  call void @llvm.lifetime.start.p0(i64 1, ptr %7) #17
  store i8 0, ptr %7, align 1
  %8 = load i32, ptr %6, align 4
  switch i32 %8, label %63 [
    i32 0, label %9
    i32 1, label %26
    i32 2, label %43
  ]

9:                                                ; preds = %3
  %10 = load ptr, ptr %4, align 8
  %11 = getelementptr inbounds nuw %struct.preference, ptr %10, i32 0, i32 8
  %12 = load ptr, ptr %11, align 8
  %13 = load ptr, ptr %5, align 8
  %14 = call zeroext i1 @ranges_are_equal(ptr noundef %12, ptr noundef %13)
  br i1 %14, label %25, label %15

15:                                               ; preds = %9
  %16 = call ptr @wmem_epan_scope()
  %17 = load ptr, ptr %4, align 8
  %18 = getelementptr inbounds nuw %struct.preference, ptr %17, i32 0, i32 8
  %19 = load ptr, ptr %18, align 8
  call void @wmem_free(ptr noundef %16, ptr noundef %19)
  %20 = call ptr @wmem_epan_scope()
  %21 = load ptr, ptr %5, align 8
  %22 = call ptr @range_copy(ptr noundef %20, ptr noundef %21)
  %23 = load ptr, ptr %4, align 8
  %24 = getelementptr inbounds nuw %struct.preference, ptr %23, i32 0, i32 8
  store ptr %22, ptr %24, align 8
  store i8 1, ptr %7, align 1
  br label %25

25:                                               ; preds = %15, %9
  br label %64

26:                                               ; preds = %3
  %27 = load ptr, ptr %4, align 8
  %28 = getelementptr inbounds nuw %struct.preference, ptr %27, i32 0, i32 7
  %29 = load ptr, ptr %28, align 8
  %30 = load ptr, ptr %5, align 8
  %31 = call zeroext i1 @ranges_are_equal(ptr noundef %29, ptr noundef %30)
  br i1 %31, label %42, label %32

32:                                               ; preds = %26
  %33 = call ptr @wmem_epan_scope()
  %34 = load ptr, ptr %4, align 8
  %35 = getelementptr inbounds nuw %struct.preference, ptr %34, i32 0, i32 7
  %36 = load ptr, ptr %35, align 8
  call void @wmem_free(ptr noundef %33, ptr noundef %36)
  %37 = call ptr @wmem_epan_scope()
  %38 = load ptr, ptr %5, align 8
  %39 = call ptr @range_copy(ptr noundef %37, ptr noundef %38)
  %40 = load ptr, ptr %4, align 8
  %41 = getelementptr inbounds nuw %struct.preference, ptr %40, i32 0, i32 7
  store ptr %39, ptr %41, align 8
  store i8 1, ptr %7, align 1
  br label %42

42:                                               ; preds = %32, %26
  br label %64

43:                                               ; preds = %3
  %44 = load ptr, ptr %4, align 8
  %45 = getelementptr inbounds nuw %struct.preference, ptr %44, i32 0, i32 6
  %46 = load ptr, ptr %45, align 8
  %47 = load ptr, ptr %46, align 8
  %48 = load ptr, ptr %5, align 8
  %49 = call zeroext i1 @ranges_are_equal(ptr noundef %47, ptr noundef %48)
  br i1 %49, label %62, label %50

50:                                               ; preds = %43
  %51 = call ptr @wmem_epan_scope()
  %52 = load ptr, ptr %4, align 8
  %53 = getelementptr inbounds nuw %struct.preference, ptr %52, i32 0, i32 6
  %54 = load ptr, ptr %53, align 8
  %55 = load ptr, ptr %54, align 8
  call void @wmem_free(ptr noundef %51, ptr noundef %55)
  %56 = call ptr @wmem_epan_scope()
  %57 = load ptr, ptr %5, align 8
  %58 = call ptr @range_copy(ptr noundef %56, ptr noundef %57)
  %59 = load ptr, ptr %4, align 8
  %60 = getelementptr inbounds nuw %struct.preference, ptr %59, i32 0, i32 6
  %61 = load ptr, ptr %60, align 8
  store ptr %58, ptr %61, align 8
  store i8 1, ptr %7, align 1
  br label %62

62:                                               ; preds = %50, %43
  br label %64

63:                                               ; preds = %3
  call void (ptr, i32, ptr, i64, ptr, ptr, ...) @ws_log_fatal_full(ptr noundef @.str, i32 noundef 7, ptr noundef @.str.1, i64 noundef 1755, ptr noundef @__func__.prefs_set_range_value, ptr noundef @.str.8) #18
  unreachable

64:                                               ; preds = %62, %42, %25
  %65 = load i8, ptr %7, align 1, !range !6, !noundef !7
  %66 = trunc i8 %65 to i1
  call void @llvm.lifetime.end.p0(i64 1, ptr %7) #17
  ret i1 %66
}