; Function Attrs: null_pointer_is_valid sspstrong uwtable
define noundef zeroext i1 @prefs_set_range_value(ptr noundef captures(none) %0, ptr noundef %1, i32 noundef %2) local_unnamed_addr #1 {
  switch i32 %2, label %34 [
    i32 0, label %4
    i32 1, label %13
    i32 2, label %22
  ]

4:                                                ; preds = %3
  %5 = getelementptr inbounds nuw i8, ptr %0, i64 56
  %6 = load ptr, ptr %5, align 8
  %7 = tail call zeroext i1 @ranges_are_equal(ptr noundef %6, ptr noundef %1)
  br i1 %7, label %35, label %8

8:                                                ; preds = %4
  %9 = tail call ptr @wmem_epan_scope()
  %10 = load ptr, ptr %5, align 8
  tail call void @wmem_free(ptr noundef %9, ptr noundef %10)
  %11 = tail call ptr @wmem_epan_scope()
  %12 = tail call ptr @range_copy(ptr noundef %11, ptr noundef %1)
  store ptr %12, ptr %5, align 8
  br label %35

13:                                               ; preds = %3
  %14 = getelementptr inbounds nuw i8, ptr %0, i64 48
  %15 = load ptr, ptr %14, align 8
  %16 = tail call zeroext i1 @ranges_are_equal(ptr noundef %15, ptr noundef %1)
  br i1 %16, label %35, label %17

17:                                               ; preds = %13
  %18 = tail call ptr @wmem_epan_scope()
  %19 = load ptr, ptr %14, align 8
  tail call void @wmem_free(ptr noundef %18, ptr noundef %19)
  %20 = tail call ptr @wmem_epan_scope()
  %21 = tail call ptr @range_copy(ptr noundef %20, ptr noundef %1)
  store ptr %21, ptr %14, align 8
  br label %35

22:                                               ; preds = %3
  %23 = getelementptr inbounds nuw i8, ptr %0, i64 40
  %24 = load ptr, ptr %23, align 8
  %25 = load ptr, ptr %24, align 8
  %26 = tail call zeroext i1 @ranges_are_equal(ptr noundef %25, ptr noundef %1)
  br i1 %26, label %35, label %27

27:                                               ; preds = %22
  %28 = tail call ptr @wmem_epan_scope()
  %29 = load ptr, ptr %23, align 8
  %30 = load ptr, ptr %29, align 8
  tail call void @wmem_free(ptr noundef %28, ptr noundef %30)
  %31 = tail call ptr @wmem_epan_scope()
  %32 = tail call ptr @range_copy(ptr noundef %31, ptr noundef %1)
  %33 = load ptr, ptr %23, align 8
  store ptr %32, ptr %33, align 8
  br label %35

34:                                               ; preds = %3
  tail call void (ptr, i32, ptr, i64, ptr, ptr, ...) @ws_log_fatal_full(ptr noundef nonnull @.str, i32 noundef 7, ptr noundef nonnull @.str.1, i64 noundef 1755, ptr noundef nonnull @__func__.prefs_set_range_value, ptr noundef nonnull @.str.8) #26
  unreachable

35:                                               ; preds = %22, %27, %13, %17, %4, %8
  %.0 = phi i1 [ false, %22 ], [ true, %27 ], [ false, %13 ], [ true, %17 ], [ false, %4 ], [ true, %8 ]
  ret i1 %.0
}